(dp1
VZDRAVJE
p2
I2229488
sVZIVOT
p3
I2061906
sVTENIS
p4
I213713
sVSVET
p5
I9605486
sVSCENA
p6
I2915655
sVKOSARKA
p7
I663191
sVKULTURA
p8
I2463937
sVEKONOMIJA
p9
I8312127
sVMAKEDONIJA
p10
I15762915
sVRAKOMET
p11
I508088
sVFUDBAL
p12
I1493144
sVTEHNOLOGIJA
p13
I731619
s.