(dp1
VZDRAVJE
p2
F0.034683013389256334
sVZIVOT
p3
F0.053351713619498746
sVTENIS
p4
F0.007281233043452756
sVSVET
p5
F0.2301800876974292
sVSCENA
p6
F0.083121911158691289
sVKOSARKA
p7
F0.019321298156594172
sVKULTURA
p8
F0.044897270820806877
sVEKONOMIJA
p9
F0.15281423690037982
sVMAKEDONIJA
p10
F0.29691372508762409
sVRAKOMET
p11
F0.013165613222073942
sVFUDBAL
p12
F0.044475648565017817
sVTEHNOLOGIJA
p13
F0.019794248339174939
s.